; Function Attrs: mustprogress uwtable
define void @_ZN16OverlayScrollBar11resizeEventEP12QResizeEvent(ptr noundef nonnull align 8 dereferenceable(196) %0, ptr noundef %1) unnamed_addr #0 align 2 {
  %3 = alloca %class.QSize, align 4
  %4 = alloca %class.QPoint, align 4
  tail call void @_ZN7QWidget11resizeEventEP12QResizeEvent(ptr noundef nonnull align 8 dereferenceable(40) %0, ptr noundef %1)
  %5 = getelementptr inbounds i8, ptr %0, i64 56
  %6 = getelementptr inbounds i8, ptr %0, i64 144
  %7 = load i32, ptr %6, align 8
  call void @llvm.lifetime.start.p0(i64 8, ptr nonnull %4)
  store i32 %7, ptr %4, align 4
  %8 = getelementptr inbounds i8, ptr %4, i64 4
  store i32 0, ptr %8, align 4
  call void @_ZN7QWidget4moveERK6QPoint(ptr noundef nonnull align 8 dereferenceable(40) %5, ptr noundef nonnull align 4 dereferenceable(8) %4)
  call void @llvm.lifetime.end.p0(i64 8, ptr nonnull %4)
  %9 = call i64 @_ZNK10QScrollBar8sizeHintEv(ptr noundef nonnull align 8 dereferenceable(40) %5)
  %.sroa.0.0.extract.trunc = trunc i64 %9 to i32
  %10 = getelementptr inbounds i8, ptr %0, i64 32
  %11 = load ptr, ptr %10, align 8
  %12 = getelementptr inbounds i8, ptr %11, i64 32
  %13 = load i32, ptr %12, align 4
  %14 = getelementptr inbounds i8, ptr %11, i64 24
  %15 = load i32, ptr %14, align 4
  %16 = add i32 %13, 1
  %17 = sub i32 %16, %15
  call void @llvm.lifetime.start.p0(i64 8, ptr nonnull %3)
  store i32 %.sroa.0.0.extract.trunc, ptr %3, align 4
  %18 = getelementptr inbounds i8, ptr %3, i64 4
  store i32 %17, ptr %18, align 4
  call void @_ZN7QWidget6resizeERK5QSize(ptr noundef nonnull align 8 dereferenceable(40) %5, ptr noundef nonnull align 4 dereferenceable(8) %3)
  call void @llvm.lifetime.end.p0(i64 8, ptr nonnull %3)
  ret void
}